target datalayout = "e-m:e-p270:32:32-p271:32:32-p272:64:64-i64:64-i128:128-f80:128-n8:16:32:64-S128"
target triple = "x86_64-pc-linux-gnu"

%"class.nix::Settings" = type { %"class.nix::Config", %"class.std::__cxx11::basic_string", %"class.std::__cxx11::basic_string", %"class.std::__cxx11::basic_string", %"class.std::__cxx11::basic_string", %"class.std::__cxx11::basic_string", %"class.std::__cxx11::basic_string", %"class.std::vector", %"class.std::__cxx11::basic_string", %"class.std::__cxx11::basic_string", %"class.std::__cxx11::basic_string", %"class.nix::Setting", %"class.nix::Setting.17", %"class.nix::Setting.17", %"class.nix::Setting.17", i8, [7 x i8], %"class.nix::Setting.21", %"struct.nix::MaxBuildJobsSetting", %"class.nix::Setting.27", %"class.nix::Setting.27", i8, [7 x i8], %"class.nix::Setting", %"class.nix::Setting.29", %"class.nix::Setting.29", %"class.nix::Setting.33", %"class.nix::Setting", %"class.nix::Setting.17", %"class.nix::Setting.17", %"class.nix::Setting.29", %"class.nix::Setting.17", %"class.nix::Setting.17", %"class.nix::Setting.17", %"class.nix::Setting.17", %"class.nix::Setting", %"class.nix::Setting.17", %"class.nix::Setting.27", %"class.nix::Setting.27", %"class.nix::Setting.17", %"class.nix::Setting.17", %"class.nix::Setting.17", %"class.nix::Setting.17", %"class.nix::Setting.21", %"class.nix::Setting.27", %"class.nix::Setting.17", %"class.nix::Setting.17", %"class.nix::Setting.17", %"class.nix::Setting.17", %"class.nix::Setting.40", %"class.nix::Setting.44", %"class.nix::Setting.17", %"class.nix::Setting.17", %"class.nix::Setting", %"class.nix::Setting", %"class.nix::Setting.44", %"class.nix::Setting.17", %"class.nix::OptionalPathSetting", %"class.nix::Setting.33", %"class.nix::Setting.33", %"class.nix::Setting.27", %"class.nix::Setting.17", %"class.nix::Setting.44", %"class.nix::Setting.44", %"class.nix::Setting.33", %"class.nix::Setting.44", %"class.nix::Setting.27", %"class.nix::Setting.27", %"class.nix::Setting.17", %"class.nix::Setting", %"class.nix::Setting", %"class.nix::Setting.27", %"class.nix::Setting", %"class.nix::Setting", %"class.nix::Setting.17", %"class.nix::Setting.17", %"class.nix::Setting.44", %"class.nix::Setting.33", %"class.nix::Setting.21", %"class.nix::Setting.21", %"class.nix::Setting.21", %"struct.nix::PluginFilesSetting", %"class.nix::Setting.21", %"class.nix::Setting.17", %"class.nix::Setting.17", %"class.nix::Setting.60", %"class.nix::Setting" }
%"class.nix::Config" = type { %"class.nix::AbstractConfig", %"class.std::map.2" }
%"class.nix::AbstractConfig" = type { ptr, %"class.std::map" }
%"class.std::map" = type { %"class.std::_Rb_tree" }
%"class.std::_Rb_tree" = type { %"struct.std::_Rb_tree<std::__cxx11::basic_string<char>, std::pair<const std::__cxx11::basic_string<char>, std::__cxx11::basic_string<char>>, std::_Select1st<std::pair<const std::__cxx11::basic_string<char>, std::__cxx11::basic_string<char>>>, std::less<std::__cxx11::basic_string<char>>>::_Rb_tree_impl" }
%"struct.std::_Rb_tree<std::__cxx11::basic_string<char>, std::pair<const std::__cxx11::basic_string<char>, std::__cxx11::basic_string<char>>, std::_Select1st<std::pair<const std::__cxx11::basic_string<char>, std::__cxx11::basic_string<char>>>, std::less<std::__cxx11::basic_string<char>>>::_Rb_tree_impl" = type { %"struct.std::_Rb_tree_key_compare", %"struct.std::_Rb_tree_header" }
%"struct.std::_Rb_tree_key_compare" = type { %"struct.std::less" }
%"struct.std::less" = type { i8 }
%"struct.std::_Rb_tree_header" = type { %"struct.std::_Rb_tree_node_base", i64 }
%"struct.std::_Rb_tree_node_base" = type { i32, ptr, ptr, ptr }
%"class.std::map.2" = type { %"class.std::_Rb_tree.3" }
%"class.std::_Rb_tree.3" = type { %"struct.std::_Rb_tree<std::__cxx11::basic_string<char>, std::pair<const std::__cxx11::basic_string<char>, nix::Config::SettingData>, std::_Select1st<std::pair<const std::__cxx11::basic_string<char>, nix::Config::SettingData>>, std::less<std::__cxx11::basic_string<char>>>::_Rb_tree_impl" }
%"struct.std::_Rb_tree<std::__cxx11::basic_string<char>, std::pair<const std::__cxx11::basic_string<char>, nix::Config::SettingData>, std::_Select1st<std::pair<const std::__cxx11::basic_string<char>, nix::Config::SettingData>>, std::less<std::__cxx11::basic_string<char>>>::_Rb_tree_impl" = type { %"struct.std::_Rb_tree_key_compare", %"struct.std::_Rb_tree_header" }
%"class.std::vector" = type { %"struct.std::_Vector_base" }
%"struct.std::_Vector_base" = type { %"struct.std::_Vector_base<std::__cxx11::basic_string<char>, std::allocator<std::__cxx11::basic_string<char>>>::_Vector_impl" }
%"struct.std::_Vector_base<std::__cxx11::basic_string<char>, std::allocator<std::__cxx11::basic_string<char>>>::_Vector_impl" = type { %"struct.std::_Vector_base<std::__cxx11::basic_string<char>, std::allocator<std::__cxx11::basic_string<char>>>::_Vector_impl_data" }
%"struct.std::_Vector_base<std::__cxx11::basic_string<char>, std::allocator<std::__cxx11::basic_string<char>>>::_Vector_impl_data" = type { ptr, ptr, ptr }
%"class.std::__cxx11::basic_string" = type { %"struct.std::__cxx11::basic_string<char>::_Alloc_hider", i64, %union.anon }
%"struct.std::__cxx11::basic_string<char>::_Alloc_hider" = type { ptr }
%union.anon = type { i64, [8 x i8] }
%"struct.nix::MaxBuildJobsSetting" = type { %"class.nix::BaseSetting.base.26", [7 x i8] }
%"class.nix::BaseSetting.base.26" = type <{ %"class.nix::AbstractSetting", i32, i32, i8 }>
%"class.nix::AbstractSetting" = type { ptr, %"class.std::__cxx11::basic_string", %"class.std::__cxx11::basic_string", %"class.std::set", i32, i8, [3 x i8], %"class.std::optional" }
%"class.std::set" = type { %"class.std::_Rb_tree.13" }
%"class.std::_Rb_tree.13" = type { %"struct.std::_Rb_tree<std::__cxx11::basic_string<char>, std::__cxx11::basic_string<char>, std::_Identity<std::__cxx11::basic_string<char>>, std::less<std::__cxx11::basic_string<char>>>::_Rb_tree_impl" }
%"struct.std::_Rb_tree<std::__cxx11::basic_string<char>, std::__cxx11::basic_string<char>, std::_Identity<std::__cxx11::basic_string<char>>, std::less<std::__cxx11::basic_string<char>>>::_Rb_tree_impl" = type { %"struct.std::_Rb_tree_key_compare", %"struct.std::_Rb_tree_header" }
%"class.std::optional" = type { %"struct.std::_Optional_base" }
%"struct.std::_Optional_base" = type { %"struct.std::_Optional_payload" }
%"struct.std::_Optional_payload" = type { %"struct.std::_Optional_payload_base.base", [3 x i8] }
%"struct.std::_Optional_payload_base.base" = type <{ %"union.std::_Optional_payload_base<nix::ExperimentalFeature>::_Storage", i8 }>
%"union.std::_Optional_payload_base<nix::ExperimentalFeature>::_Storage" = type { i32 }
%"class.nix::Setting.29" = type { %"class.nix::BaseSetting.base.31", [7 x i8] }
%"class.nix::BaseSetting.base.31" = type <{ %"class.nix::AbstractSetting", i64, i64, i8 }>
%"class.nix::Setting.40" = type { %"class.nix::BaseSetting.base.42", [7 x i8] }
%"class.nix::BaseSetting.base.42" = type <{ %"class.nix::AbstractSetting", i32, i32, i8 }>
%"class.nix::OptionalPathSetting" = type { %"class.nix::BaseSetting.base.59", [7 x i8] }
%"class.nix::BaseSetting.base.59" = type <{ %"class.nix::AbstractSetting", %"class.std::optional.49", %"class.std::optional.49", i8 }>
%"class.std::optional.49" = type { %"struct.std::_Optional_base.50" }
%"struct.std::_Optional_base.50" = type { %"struct.std::_Optional_payload.52" }
%"struct.std::_Optional_payload.52" = type { %"struct.std::_Optional_payload.base.56", [7 x i8] }
%"struct.std::_Optional_payload.base.56" = type { %"struct.std::_Optional_payload_base.base.55" }
%"struct.std::_Optional_payload_base.base.55" = type <{ %"union.std::_Optional_payload_base<std::__cxx11::basic_string<char>>::_Storage", i8 }>
%"union.std::_Optional_payload_base<std::__cxx11::basic_string<char>>::_Storage" = type { %"class.std::__cxx11::basic_string" }
%"class.nix::Setting.27" = type { %"class.nix::BaseSetting.base.26", [7 x i8] }
%"class.nix::Setting.44" = type { %"class.nix::BaseSetting.base.46", [7 x i8] }
%"class.nix::BaseSetting.base.46" = type <{ %"class.nix::AbstractSetting", %"class.std::set", %"class.std::set", i8 }>
%"class.nix::Setting.33" = type { %"class.nix::BaseSetting.base.38", [7 x i8] }
%"class.nix::BaseSetting.base.38" = type <{ %"class.nix::AbstractSetting", %"class.std::__cxx11::list", %"class.std::__cxx11::list", i8 }>
%"class.std::__cxx11::list" = type { %"class.std::__cxx11::_List_base" }
%"class.std::__cxx11::_List_base" = type { %"struct.std::__cxx11::_List_base<std::__cxx11::basic_string<char>, std::allocator<std::__cxx11::basic_string<char>>>::_List_impl" }
%"struct.std::__cxx11::_List_base<std::__cxx11::basic_string<char>, std::allocator<std::__cxx11::basic_string<char>>>::_List_impl" = type { %"struct.std::__detail::_List_node_header" }
%"struct.std::__detail::_List_node_header" = type { %"struct.std::__detail::_List_node_base", i64 }
%"struct.std::__detail::_List_node_base" = type { ptr, ptr }
%"struct.nix::PluginFilesSetting" = type { %"class.nix::BaseSetting.base.38", i8, [6 x i8] }
%"class.nix::Setting.21" = type { %"class.nix::BaseSetting.base.23", [7 x i8] }
%"class.nix::BaseSetting.base.23" = type <{ %"class.nix::AbstractSetting", i64, i64, i8 }>
%"class.nix::Setting.17" = type { %"class.nix::BaseSetting.base.19", [5 x i8] }
%"class.nix::BaseSetting.base.19" = type <{ %"class.nix::AbstractSetting", i8, i8, i8 }>
%"class.nix::Setting.60" = type { %"class.nix::BaseSetting.base.62", [7 x i8] }
%"class.nix::BaseSetting.base.62" = type <{ %"class.nix::AbstractSetting", %"class.std::map", %"class.std::map", i8 }>
%"class.nix::Setting" = type { %"class.nix::BaseSetting.base", [7 x i8] }
%"class.nix::BaseSetting.base" = type <{ %"class.nix::AbstractSetting", %"class.std::__cxx11::basic_string", %"class.std::__cxx11::basic_string", i8 }>
%"class.std::unique_ptr" = type { %"struct.std::__uniq_ptr_data" }
%"struct.std::__uniq_ptr_data" = type { %"class.std::__uniq_ptr_impl" }
%"class.std::__uniq_ptr_impl" = type { %"class.std::tuple" }
%"class.std::tuple" = type { %"struct.std::_Tuple_impl" }
%"struct.std::_Tuple_impl" = type { %"struct.std::_Head_base.1" }
%"struct.std::_Head_base.1" = type { ptr }
%"class.nix::BaseSetting.18" = type <{ %"class.nix::AbstractSetting", i8, i8, i8, [5 x i8] }>

@_ZN3nix8settingsE = external global %"class.nix::Settings", align 8

; Function Attrs: mustprogress nounwind uwtable
define linkonce_odr noundef nonnull align 1 dereferenceable(1) ptr @_ZN3nix11BaseSettingIbEcvRbEv(ptr noundef nonnull align 8 dereferenceable(139) %0) #2 comdat align 2 {
  %2 = alloca ptr, align 8
  store ptr %0, ptr %2, align 8
  %3 = load ptr, ptr %2, align 8
  %4 = getelementptr inbounds %"class.nix::BaseSetting.18", ptr %3, i32 0, i32 1
  ret ptr %4
}

; Function Attrs: mustprogress uwtable
define void @_ZN3nix15acquireUserLockEjb(ptr dead_on_unwind noalias writable sret(%"class.std::unique_ptr") align 8 %0, i32 noundef %1, i1 noundef zeroext %2) #3 {
  %4 = alloca ptr, align 8
  %5 = alloca i32, align 4
  %6 = alloca i8, align 1
  store ptr %0, ptr %4, align 8
  store i32 %1, ptr %5, align 4
  %7 = zext i1 %2 to i8
  store i8 %7, ptr %6, align 1
  %8 = call noundef nonnull align 1 dereferenceable(1) ptr @_ZN3nix11BaseSettingIbEcvRbEv(ptr noundef nonnull align 8 dereferenceable(139) getelementptr inbounds (%"class.nix::Settings", ptr @_ZN3nix8settingsE, i32 0, i32 36))
  %9 = load i8, ptr %8, align 1
  %10 = trunc i8 %9 to i1
  br i1 %10, label %11, label %15

11:                                               ; preds = %3
  %12 = load i32, ptr %5, align 4
  %13 = load i8, ptr %6, align 1
  %14 = trunc i8 %13 to i1
  call void @_ZN3nix12AutoUserLock7acquireEjb(ptr dead_on_unwind writable sret(%"class.std::unique_ptr") align 8 %0, i32 noundef %12, i1 noundef zeroext %14)
  br label %16

15:                                               ; preds = %3
  call void @_ZN3nix14SimpleUserLock7acquireEv(ptr dead_on_unwind writable sret(%"class.std::unique_ptr") align 8 %0)
  br label %16

16:                                               ; preds = %15, %11
  ret void
}