; Function Attrs: mustprogress uwtable
define void @_ZN3nix15acquireUserLockEjb(ptr dead_on_unwind noalias writable sret(%"class.std::unique_ptr") align 8 %0, i32 noundef %1, i1 noundef zeroext %2) local_unnamed_addr #2 {
  %4 = load i8, ptr getelementptr inbounds (%"class.nix::Settings", ptr @_ZN3nix8settingsE, i64 0, i32 36, i32 0, i32 1), align 8
  %5 = and i8 %4, 1
  %.not = icmp eq i8 %5, 0
  br i1 %.not, label %7, label %6

6:                                                ; preds = %3
  tail call void @_ZN3nix12AutoUserLock7acquireEjb(ptr dead_on_unwind writable sret(%"class.std::unique_ptr") align 8 %0, i32 noundef %1, i1 noundef zeroext %2)
  br label %8

7:                                                ; preds = %3
  tail call void @_ZN3nix14SimpleUserLock7acquireEv(ptr dead_on_unwind writable sret(%"class.std::unique_ptr") align 8 %0)
  br label %8

8:                                                ; preds = %7, %6
  ret void
}